target datalayout = "e-m:e-p270:32:32-p271:32:32-p272:64:64-i64:64-i128:128-f80:128-n8:16:32:64-S128"
target triple = "x86_64-pc-linux-gnu"

%struct.PyVarObject = type { %struct._object, i64 }
%struct._object = type { %union.anon, ptr }
%union.anon = type { i64 }
%struct.PyTupleObject = type { %struct.PyVarObject, [1 x ptr] }

; Function Attrs: inlinehint nounwind uwtable
define internal i64 @Py_SIZE(ptr noundef %0) #2 {
  %2 = alloca ptr, align 8
  store ptr %0, ptr %2, align 8, !tbaa !10
  %3 = load ptr, ptr %2, align 8, !tbaa !10
  %4 = getelementptr inbounds nuw %struct.PyVarObject, ptr %3, i32 0, i32 1
  %5 = load i64, ptr %4, align 8, !tbaa !108
  ret i64 %5
}

; Function Attrs: nounwind uwtable
define internal i32 @tuple_traverse(ptr noundef %0, ptr noundef %1, ptr noundef %2) #0 {
  %4 = alloca i32, align 4
  %5 = alloca ptr, align 8
  %6 = alloca ptr, align 8
  %7 = alloca ptr, align 8
  %8 = alloca ptr, align 8
  %9 = alloca i64, align 8
  %10 = alloca i32, align 4
  %11 = alloca i32, align 4
  store ptr %0, ptr %5, align 8, !tbaa !10
  store ptr %1, ptr %6, align 8, !tbaa !8
  store ptr %2, ptr %7, align 8, !tbaa !8
  call void @llvm.lifetime.start.p0(i64 8, ptr %8) #9
  %12 = load ptr, ptr %5, align 8, !tbaa !10
  store ptr %12, ptr %8, align 8, !tbaa !8
  call void @llvm.lifetime.start.p0(i64 8, ptr %9) #9
  %13 = load ptr, ptr %8, align 8, !tbaa !8
  %14 = call i64 @Py_SIZE(ptr noundef %13)
  store i64 %14, ptr %9, align 8, !tbaa !4
  br label %15

15:                                               ; preds = %47, %3
  %16 = load i64, ptr %9, align 8, !tbaa !4
  %17 = add i64 %16, -1
  store i64 %17, ptr %9, align 8, !tbaa !4
  %18 = icmp sge i64 %17, 0
  br i1 %18, label %20, label %19

19:                                               ; preds = %15
  store i32 2, ptr %10, align 4
  br label %48

20:                                               ; preds = %15
  br label %21

21:                                               ; preds = %20
  %22 = load ptr, ptr %8, align 8, !tbaa !8
  %23 = getelementptr inbounds nuw %struct.PyTupleObject, ptr %22, i32 0, i32 1
  %24 = load i64, ptr %9, align 8, !tbaa !4
  %25 = getelementptr [1 x ptr], ptr %23, i64 0, i64 %24
  %26 = load ptr, ptr %25, align 8, !tbaa !10
  %27 = icmp ne ptr %26, null
  br i1 %27, label %28, label %45

28:                                               ; preds = %21
  call void @llvm.lifetime.start.p0(i64 4, ptr %11) #9
  %29 = load ptr, ptr %6, align 8, !tbaa !8
  %30 = load ptr, ptr %8, align 8, !tbaa !8
  %31 = getelementptr inbounds nuw %struct.PyTupleObject, ptr %30, i32 0, i32 1
  %32 = load i64, ptr %9, align 8, !tbaa !4
  %33 = getelementptr [1 x ptr], ptr %31, i64 0, i64 %32
  %34 = load ptr, ptr %33, align 8, !tbaa !10
  %35 = load ptr, ptr %7, align 8, !tbaa !8
  %36 = call i32 %29(ptr noundef %34, ptr noundef %35)
  store i32 %36, ptr %11, align 4, !tbaa !125
  %37 = load i32, ptr %11, align 4, !tbaa !125
  %38 = icmp ne i32 %37, 0
  br i1 %38, label %39, label %41

39:                                               ; preds = %28
  %40 = load i32, ptr %11, align 4, !tbaa !125
  store i32 %40, ptr %4, align 4
  store i32 1, ptr %10, align 4
  br label %42

41:                                               ; preds = %28
  store i32 0, ptr %10, align 4
  br label %42

42:                                               ; preds = %41, %39
  call void @llvm.lifetime.end.p0(i64 4, ptr %11) #9
  %43 = load i32, ptr %10, align 4
  switch i32 %43, label %48 [
    i32 0, label %44
  ]

44:                                               ; preds = %42
  br label %45

45:                                               ; preds = %44, %21
  br label %46

46:                                               ; preds = %45
  br label %47

47:                                               ; preds = %46
  br label %15, !llvm.loop !130

48:                                               ; preds = %42, %19
  call void @llvm.lifetime.end.p0(i64 8, ptr %9) #9
  %49 = load i32, ptr %10, align 4
  switch i32 %49, label %51 [
    i32 2, label %50
  ]

50:                                               ; preds = %48
  store i32 0, ptr %4, align 4
  store i32 1, ptr %10, align 4
  br label %51

51:                                               ; preds = %50, %48
  call void @llvm.lifetime.end.p0(i64 8, ptr %8) #9
  %52 = load i32, ptr %4, align 4
  ret i32 %52
}