; Function Attrs: nounwind uwtable
define internal i32 @tuple_traverse(ptr noundef readonly captures(none) %0, ptr noundef readonly captures(none) %1, ptr noundef %2) #0 {
  %4 = getelementptr i8, ptr %0, i64 16
  %.val = load i64, ptr %4, align 8, !tbaa !107
  %5 = add i64 %.val, -1
  %6 = icmp slt i64 %5, 0
  br i1 %6, label %._crit_edge, label %.lr.ph

.lr.ph:                                           ; preds = %3
  %7 = getelementptr inbounds nuw i8, ptr %0, i64 24
  br label %8

8:                                                ; preds = %.lr.ph, %14
  %9 = phi i64 [ %5, %.lr.ph ], [ %15, %14 ]
  %10 = getelementptr [1 x ptr], ptr %7, i64 0, i64 %9
  %11 = load ptr, ptr %10, align 8, !tbaa !25
  %.not = icmp eq ptr %11, null
  br i1 %.not, label %14, label %12

12:                                               ; preds = %8
  %13 = tail call i32 %1(ptr noundef nonnull %11, ptr noundef %2) #9
  %.not20 = icmp eq i32 %13, 0
  br i1 %.not20, label %14, label %._crit_edge

14:                                               ; preds = %12, %8
  %15 = add nsw i64 %9, -1
  %16 = icmp slt i64 %9, 1
  br i1 %16, label %._crit_edge, label %8, !llvm.loop !123

._crit_edge:                                      ; preds = %12, %14, %3
  %spec.select = phi i32 [ 0, %3 ], [ 0, %14 ], [ %13, %12 ]
  ret i32 %spec.select
}